; Function Attrs: mustprogress uwtable
define hidden void @_ZNK7datalog7context18collect_statisticsER10statistics(ptr nocapture noundef nonnull readonly align 8 dereferenceable(3556) %this, ptr noundef nonnull align 8 dereferenceable(16) %st) local_unnamed_addr #3 align 2 {
entry:
  %m_engine = getelementptr inbounds i8, ptr %this, i64 3504
  %0 = load ptr, ptr %m_engine, align 8
  %cmp.i.not = icmp eq ptr %0, null
  br i1 %cmp.i.not, label %if.end, label %if.then

if.then:                                          ; preds = %entry
  %vtable = load ptr, ptr %0, align 8
  %vfn = getelementptr inbounds i8, ptr %vtable, i64 72
  %1 = load ptr, ptr %vfn, align 8
  tail call void %1(ptr noundef nonnull align 8 dereferenceable(48) %0, ptr noundef nonnull align 8 dereferenceable(16) %st)
  br label %if.end

if.end:                                           ; preds = %if.then, %entry
  tail call void @_Z21get_memory_statisticsR10statistics(ptr noundef nonnull align 8 dereferenceable(16) %st)
  %2 = load ptr, ptr %this, align 8
  tail call void @_Z21get_rlimit_statisticsR8reslimitR10statistics(ptr noundef nonnull align 8 dereferenceable(40) %2, ptr noundef nonnull align 8 dereferenceable(16) %st)
  ret void
}